(dp0
V(C)
p1
F3.411328233082372
sV(O)
p2
F2.650813022279749
sV(=O)
p3
F1.0733039048629216
sV(N)
p4
F4.5577069524500935
sV(n)
p5
F0.08386917933330906
sV(o)
p6
F1.6502274649596576
sV(s)
p7
F5.996262270754805
sVC
p8
F4.476858531055569
sV/
p9
F1.0119534175284368
sV=
p10
F3.6808490938897993
sV[C@@H]
p11
F8.131290681393857
sV(
p12
F8.266192503585273
sV)
p13
F6.683104221209575
sVO
p14
F5.130977687033376
sV[C@H]
p15
F3.758563510147935
sV1
p16
F7.796273903860463
sVN
p17
F8.269082970885636
sVc
p18
F3.486912813582041
sV2
p19
F6.978183781828717
sV3
p20
F4.490030429296276
sV[nH]
p21
F4.682098911821306
sVn
p22
F9.366060734864405
sV\u005c
p23
F0.7620233985563996
sVS
p24
F8.02468704220074
sVF
p25
F1.900126568218015
sVs
p26
F8.399999644603158
sVCl
p27
F7.1887596865624666
sVo
p28
F8.578023937974635
sVBr
p29
F2.6603573341012723
sV[C@]
p30
F2.548462570859124
sV4
p31
F5.153018748604131
sV[N+]
p32
F2.617423853432321
sV[O-]
p33
F5.365806527545173
s.