(lp0
VMaxEStateIndex
p1
aVMinEStateIndex
p2
aVMaxAbsEStateIndex
p3
aVMinAbsEStateIndex
p4
aVqed
p5
aVMolWt
p6
aVHeavyAtomMolWt
p7
aVExactMolWt
p8
aVNumValenceElectrons
p9
aVNumRadicalElectrons
p10
aVMaxPartialCharge
p11
aVMinPartialCharge
p12
aVMaxAbsPartialCharge
p13
aVMinAbsPartialCharge
p14
aVFpDensityMorgan1
p15
aVFpDensityMorgan2
p16
aVFpDensityMorgan3
p17
aVBCUT2D_MWHI
p18
aVBCUT2D_MWLOW
p19
aVBCUT2D_CHGHI
p20
aVBCUT2D_CHGLO
p21
aVBCUT2D_LOGPHI
p22
aVBCUT2D_LOGPLOW
p23
aVBCUT2D_MRHI
p24
aVBCUT2D_MRLOW
p25
aVBalabanJ
p26
aVBertzCT
p27
aVChi0
p28
aVChi0n
p29
aVChi0v
p30
aVChi1
p31
aVChi1n
p32
aVChi1v
p33
aVChi2n
p34
aVChi2v
p35
aVChi3n
p36
aVChi3v
p37
aVChi4n
p38
aVChi4v
p39
aVHallKierAlpha
p40
aVIpc
p41
aVKappa1
p42
aVKappa2
p43
aVKappa3
p44
aVLabuteASA
p45
aVPEOE_VSA1
p46
aVPEOE_VSA10
p47
aVPEOE_VSA11
p48
aVPEOE_VSA12
p49
aVPEOE_VSA13
p50
aVPEOE_VSA14
p51
aVPEOE_VSA2
p52
aVPEOE_VSA3
p53
aVPEOE_VSA4
p54
aVPEOE_VSA5
p55
aVPEOE_VSA6
p56
aVPEOE_VSA7
p57
aVPEOE_VSA8
p58
aVPEOE_VSA9
p59
aVSMR_VSA1
p60
aVSMR_VSA10
p61
aVSMR_VSA2
p62
aVSMR_VSA3
p63
aVSMR_VSA4
p64
aVSMR_VSA5
p65
aVSMR_VSA6
p66
aVSMR_VSA7
p67
aVSMR_VSA8
p68
aVSMR_VSA9
p69
aVSlogP_VSA1
p70
aVSlogP_VSA10
p71
aVSlogP_VSA11
p72
aVSlogP_VSA12
p73
aVSlogP_VSA2
p74
aVSlogP_VSA3
p75
aVSlogP_VSA4
p76
aVSlogP_VSA5
p77
aVSlogP_VSA6
p78
aVSlogP_VSA7
p79
aVSlogP_VSA8
p80
aVSlogP_VSA9
p81
aVTPSA
p82
aVEState_VSA1
p83
aVEState_VSA10
p84
aVEState_VSA11
p85
aVEState_VSA2
p86
aVEState_VSA3
p87
aVEState_VSA4
p88
aVEState_VSA5
p89
aVEState_VSA6
p90
aVEState_VSA7
p91
aVEState_VSA8
p92
aVEState_VSA9
p93
aVVSA_EState1
p94
aVVSA_EState10
p95
aVVSA_EState2
p96
aVVSA_EState3
p97
aVVSA_EState4
p98
aVVSA_EState5
p99
aVVSA_EState6
p100
aVVSA_EState7
p101
aVVSA_EState8
p102
aVVSA_EState9
p103
aVFractionCSP3
p104
aVHeavyAtomCount
p105
aVNHOHCount
p106
aVNOCount
p107
aVNumAliphaticCarbocycles
p108
aVNumAliphaticHeterocycles
p109
aVNumAliphaticRings
p110
aVNumAromaticCarbocycles
p111
aVNumAromaticHeterocycles
p112
aVNumAromaticRings
p113
aVNumHAcceptors
p114
aVNumHDonors
p115
aVNumHeteroatoms
p116
aVNumRotatableBonds
p117
aVNumSaturatedCarbocycles
p118
aVNumSaturatedHeterocycles
p119
aVNumSaturatedRings
p120
aVRingCount
p121
aVMolLogP
p122
aVMolMR
p123
aVfr_Al_COO
p124
aVfr_Al_OH
p125
aVfr_Al_OH_noTert
p126
aVfr_ArN
p127
aVfr_Ar_COO
p128
aVfr_Ar_N
p129
aVfr_Ar_NH
p130
aVfr_Ar_OH
p131
aVfr_COO
p132
aVfr_COO2
p133
aVfr_C_O
p134
aVfr_C_O_noCOO
p135
aVfr_C_S
p136
aVfr_HOCCN
p137
aVfr_Imine
p138
aVfr_NH0
p139
aVfr_NH1
p140
aVfr_NH2
p141
aVfr_N_O
p142
aVfr_Ndealkylation1
p143
aVfr_Ndealkylation2
p144
aVfr_Nhpyrrole
p145
aVfr_SH
p146
aVfr_aldehyde
p147
aVfr_alkyl_carbamate
p148
aVfr_alkyl_halide
p149
aVfr_allylic_oxid
p150
aVfr_amide
p151
aVfr_amidine
p152
aVfr_aniline
p153
aVfr_aryl_methyl
p154
aVfr_azide
p155
aVfr_azo
p156
aVfr_barbitur
p157
aVfr_benzene
p158
aVfr_benzodiazepine
p159
aVfr_bicyclic
p160
aVfr_diazo
p161
aVfr_dihydropyridine
p162
aVfr_epoxide
p163
aVfr_ester
p164
aVfr_ether
p165
aVfr_furan
p166
aVfr_guanido
p167
aVfr_halogen
p168
aVfr_hdrzine
p169
aVfr_hdrzone
p170
aVfr_imidazole
p171
aVfr_imide
p172
aVfr_isocyan
p173
aVfr_isothiocyan
p174
aVfr_ketone
p175
aVfr_ketone_Topliss
p176
aVfr_lactam
p177
aVfr_lactone
p178
aVfr_methoxy
p179
aVfr_morpholine
p180
aVfr_nitrile
p181
aVfr_nitro
p182
aVfr_nitro_arom
p183
aVfr_nitro_arom_nonortho
p184
aVfr_nitroso
p185
aVfr_oxazole
p186
aVfr_oxime
p187
aVfr_para_hydroxylation
p188
aVfr_phenol
p189
aVfr_phenol_noOrthoHbond
p190
aVfr_phos_acid
p191
aVfr_phos_ester
p192
aVfr_piperdine
p193
aVfr_piperzine
p194
aVfr_priamide
p195
aVfr_prisulfonamd
p196
aVfr_pyridine
p197
aVfr_quatN
p198
aVfr_sulfide
p199
aVfr_sulfonamd
p200
aVfr_sulfone
p201
aVfr_term_acetylene
p202
aVfr_tetrazole
p203
aVfr_thiazole
p204
aVfr_thiocyan
p205
aVfr_thiophene
p206
aVfr_unbrch_alkane
p207
aVfr_urea
p208
a.